target datalayout = "e-m:e-p270:32:32-p271:32:32-p272:64:64-i64:64-i128:128-f80:128-n8:16:32:64-S128"
target triple = "x86_64-pc-linux-gnu"

%struct.diff_options = type { ptr, ptr, i32, i32, ptr, i32, ptr, i64, i64, ptr, ptr, ptr, ptr, %struct.diff_flags, i32, i32, i32, i32, i32, i32, i32, i32, i32, i32, i32, i32, i32, i32, i32, i32, i32, i32, i32, i32, i32, i32, ptr, i32, ptr, i32, i32, ptr, i64, i64, i32, i32, i32, i32, ptr, i32, i32, ptr, i32, i32, ptr, ptr, i32, [3 x i8], %struct.pathspec, ptr, ptr, ptr, ptr, ptr, ptr, ptr, ptr, i32, ptr, i32, i32, ptr, ptr, i32 }
%struct.diff_flags = type { i32, i32, i32, i32, i32, i32, i32, i32, i32, i32, i32, i32, i32, i32, i32, i32, i32, i32, i32, i32, i32, i32, i32, i32, i32, i32, i32, i32, i32, i32, i32, i32, i32, i32, i32 }
%struct.pathspec = type { i32, i8, i32, i32, ptr }

@.str.258 = private unnamed_addr constant [5 x i8] c"diff\00", align 1
@.str.291 = private unnamed_addr constant [4 x i8] c"log\00", align 1
@.str.292 = private unnamed_addr constant [6 x i8] c"short\00", align 1

; Function Attrs: nounwind uwtable
define internal i32 @parse_submodule_params(ptr noundef %0, ptr noundef %1) #0 {
  %3 = alloca i32, align 4
  %4 = alloca ptr, align 8
  %5 = alloca ptr, align 8
  store ptr %0, ptr %4, align 8, !tbaa !34
  store ptr %1, ptr %5, align 8, !tbaa !9
  %6 = load ptr, ptr %5, align 8, !tbaa !9
  %7 = call i32 @strcmp(ptr noundef %6, ptr noundef @.str.291) #11
  %8 = icmp ne i32 %7, 0
  br i1 %8, label %12, label %9

9:                                                ; preds = %2
  %10 = load ptr, ptr %4, align 8, !tbaa !34
  %11 = getelementptr inbounds nuw %struct.diff_options, ptr %10, i32 0, i32 50
  store i32 1, ptr %11, align 4, !tbaa !36
  br label %29

12:                                               ; preds = %2
  %13 = load ptr, ptr %5, align 8, !tbaa !9
  %14 = call i32 @strcmp(ptr noundef %13, ptr noundef @.str.292) #11
  %15 = icmp ne i32 %14, 0
  br i1 %15, label %19, label %16

16:                                               ; preds = %12
  %17 = load ptr, ptr %4, align 8, !tbaa !34
  %18 = getelementptr inbounds nuw %struct.diff_options, ptr %17, i32 0, i32 50
  store i32 0, ptr %18, align 4, !tbaa !36
  br label %28

19:                                               ; preds = %12
  %20 = load ptr, ptr %5, align 8, !tbaa !9
  %21 = call i32 @strcmp(ptr noundef %20, ptr noundef @.str.258) #11
  %22 = icmp ne i32 %21, 0
  br i1 %22, label %26, label %23

23:                                               ; preds = %19
  %24 = load ptr, ptr %4, align 8, !tbaa !34
  %25 = getelementptr inbounds nuw %struct.diff_options, ptr %24, i32 0, i32 50
  store i32 2, ptr %25, align 4, !tbaa !36
  br label %27

26:                                               ; preds = %19
  store i32 -1, ptr %3, align 4
  br label %30

27:                                               ; preds = %23
  br label %28

28:                                               ; preds = %27, %16
  br label %29

29:                                               ; preds = %28, %9
  store i32 0, ptr %3, align 4
  br label %30

30:                                               ; preds = %29, %26
  %31 = load i32, ptr %3, align 4
  ret i32 %31
}