; Function Attrs: mustprogress nofree nounwind willreturn memory(argmem: readwrite) uwtable
define internal fastcc range(i32 -1, 1) i32 @parse_submodule_params(ptr noundef writeonly captures(none) %0, ptr noundef readonly captures(none) %1) unnamed_addr #8 {
  %3 = tail call i32 @strcmp(ptr noundef nonnull dereferenceable(1) %1, ptr noundef nonnull dereferenceable(4) @.str.291) #33
  %.not = icmp eq i32 %3, 0
  br i1 %.not, label %.sink.split, label %4

4:                                                ; preds = %2
  %5 = tail call i32 @strcmp(ptr noundef nonnull dereferenceable(1) %1, ptr noundef nonnull dereferenceable(6) @.str.292) #33
  %.not6 = icmp eq i32 %5, 0
  br i1 %.not6, label %.sink.split, label %6

6:                                                ; preds = %4
  %7 = tail call i32 @strcmp(ptr noundef nonnull dereferenceable(1) %1, ptr noundef nonnull dereferenceable(5) @.str.258) #33
  %.not7 = icmp eq i32 %7, 0
  br i1 %.not7, label %.sink.split, label %9

.sink.split:                                      ; preds = %6, %4, %2
  %.sink = phi i32 [ 1, %2 ], [ 0, %4 ], [ 2, %6 ]
  %8 = getelementptr inbounds nuw i8, ptr %0, i64 412
  store i32 %.sink, ptr %8, align 4, !tbaa !26
  br label %9

9:                                                ; preds = %.sink.split, %6
  %.0 = phi i32 [ -1, %6 ], [ 0, %.sink.split ]
  ret i32 %.0
}